; Function Attrs: mustprogress nofree norecurse nosync nounwind willreturn memory(readwrite, inaccessiblemem: none) uwtable
define dso_local ptr @lua_atpanic(ptr noundef readonly captures(none) %0, ptr noundef %1) local_unnamed_addr #11 {
  %3 = getelementptr inbounds nuw i8, ptr %0, i64 16
  %4 = load i64, ptr %3, align 8, !tbaa !21
  %5 = inttoptr i64 %4 to ptr
  %6 = getelementptr inbounds nuw i8, ptr %5, i64 352
  %7 = load ptr, ptr %6, align 8, !tbaa !35
  store ptr %1, ptr %6, align 8, !tbaa !35
  ret ptr %7
}